; Function Attrs: mustprogress uwtable
define hidden void @_ZN15ast_translation27collect_decl_extra_childrenEP4decl(ptr noundef nonnull align 8 dereferenceable(84) %this, ptr nocapture noundef readonly %d) local_unnamed_addr #4 align 2 {
entry:
  %m_info.i = getelementptr inbounds i8, ptr %d, i64 24
  %0 = load ptr, ptr %m_info.i, align 8
  %cmp.i = icmp eq ptr %0, null
  br i1 %cmp.i, label %for.end, label %cond.false.i

cond.false.i:                                     ; preds = %entry
  %m_parameters.i.i = getelementptr inbounds i8, ptr %0, i64 8
  %1 = load ptr, ptr %m_parameters.i.i, align 8
  %cmp.i.i.i = icmp eq ptr %1, null
  br i1 %cmp.i.i.i, label %for.end, label %_ZNK4decl18get_num_parametersEv.exit

_ZNK4decl18get_num_parametersEv.exit:             ; preds = %cond.false.i
  %arrayidx.i.i.i = getelementptr inbounds i8, ptr %1, i64 -4
  %2 = load i32, ptr %arrayidx.i.i.i, align 4
  %cmp10.not = icmp eq i32 %2, 0
  br i1 %cmp10.not, label %for.end, label %for.body.lr.ph

for.body.lr.ph:                                   ; preds = %_ZNK4decl18get_num_parametersEv.exit
  %m_extra_children_stack = getelementptr inbounds i8, ptr %this, i64 24
  %wide.trip.count = zext i32 %2 to i64
  br label %for.body

for.body:                                         ; preds = %for.body.lr.ph, %for.inc
  %indvars.iv = phi i64 [ 0, %for.body.lr.ph ], [ %indvars.iv.next, %for.inc ]
  %3 = load ptr, ptr %m_info.i, align 8
  %m_parameters.i.i6 = getelementptr inbounds i8, ptr %3, i64 8
  %4 = load ptr, ptr %m_parameters.i.i6, align 8
  %arrayidx.i.i.i7 = getelementptr inbounds %class.parameter, ptr %4, i64 %indvars.iv
  %_M_index.i.i.i = getelementptr inbounds i8, ptr %arrayidx.i.i.i7, i64 8
  %5 = load i8, ptr %_M_index.i.i.i, align 8
  %cmp.i8 = icmp eq i8 %5, 1
  br i1 %cmp.i8, label %_ZNK9parameter7get_astEv.exit, label %for.inc

_ZNK9parameter7get_astEv.exit:                    ; preds = %for.body
  %6 = load ptr, ptr %arrayidx.i.i.i7, align 8
  %7 = load ptr, ptr %m_extra_children_stack, align 8
  %cmp.i9 = icmp eq ptr %7, null
  br i1 %cmp.i9, label %if.then.i, label %lor.lhs.false.i

lor.lhs.false.i:                                  ; preds = %_ZNK9parameter7get_astEv.exit
  %arrayidx.i = getelementptr inbounds i8, ptr %7, i64 -4
  %8 = load i32, ptr %arrayidx.i, align 4
  %arrayidx4.i = getelementptr inbounds i8, ptr %7, i64 -8
  %9 = load i32, ptr %arrayidx4.i, align 4
  %cmp5.i = icmp eq i32 %8, %9
  br i1 %cmp5.i, label %if.then.i, label %_ZN6vectorIP3astLb0EjE9push_backEOS1_.exit

if.then.i:                                        ; preds = %lor.lhs.false.i, %_ZNK9parameter7get_astEv.exit
  tail call void @_ZN6vectorIP3astLb0EjE13expand_vectorEv(ptr noundef nonnull align 8 dereferenceable(8) %m_extra_children_stack)
  %.pre.i = load ptr, ptr %m_extra_children_stack, align 8
  %arrayidx8.phi.trans.insert.i = getelementptr inbounds i8, ptr %.pre.i, i64 -4
  %.pre1.i = load i32, ptr %arrayidx8.phi.trans.insert.i, align 4
  br label %_ZN6vectorIP3astLb0EjE9push_backEOS1_.exit

_ZN6vectorIP3astLb0EjE9push_backEOS1_.exit:       ; preds = %lor.lhs.false.i, %if.then.i
  %10 = phi i32 [ %.pre1.i, %if.then.i ], [ %8, %lor.lhs.false.i ]
  %11 = phi ptr [ %.pre.i, %if.then.i ], [ %7, %lor.lhs.false.i ]
  %idx.ext.i = zext i32 %10 to i64
  %add.ptr.i = getelementptr inbounds ptr, ptr %11, i64 %idx.ext.i
  store ptr %6, ptr %add.ptr.i, align 8
  %12 = load ptr, ptr %m_extra_children_stack, align 8
  %arrayidx10.i = getelementptr inbounds i8, ptr %12, i64 -4
  %13 = load i32, ptr %arrayidx10.i, align 4
  %inc.i = add i32 %13, 1
  store i32 %inc.i, ptr %arrayidx10.i, align 4
  br label %for.inc

for.inc:                                          ; preds = %for.body, %_ZN6vectorIP3astLb0EjE9push_backEOS1_.exit
  %indvars.iv.next = add nuw nsw i64 %indvars.iv, 1
  %exitcond.not = icmp eq i64 %indvars.iv.next, %wide.trip.count
  br i1 %exitcond.not, label %for.end, label %for.body, !llvm.loop !7

for.end:                                          ; preds = %for.inc, %cond.false.i, %entry, %_ZNK4decl18get_num_parametersEv.exit
  ret void
}